target datalayout = "e-m:e-p270:32:32-p271:32:32-p272:64:64-i64:64-i128:128-f80:128-n8:16:32:64-S128"
target triple = "x86_64-pc-linux-gnu"

%struct._generic_SUNAdaptController = type { ptr, ptr, ptr }
%struct._ARKUserControlContent = type { double, double, double, double, ptr, ptr, ptr }

; Function Attrs: nounwind uwtable
define i32 @SUNAdaptController_UpdateH_ARKUserControl(ptr noundef %0, double noundef %1, double noundef %2) #0 {
  %4 = alloca ptr, align 8
  %5 = alloca double, align 8
  %6 = alloca double, align 8
  store ptr %0, ptr %4, align 8, !tbaa !9
  store double %1, ptr %5, align 8, !tbaa !30
  store double %2, ptr %6, align 8, !tbaa !30
  %7 = load ptr, ptr %4, align 8, !tbaa !9
  %8 = getelementptr inbounds nuw %struct._generic_SUNAdaptController, ptr %7, i32 0, i32 0
  %9 = load ptr, ptr %8, align 8, !tbaa !23
  %10 = getelementptr inbounds nuw %struct._ARKUserControlContent, ptr %9, i32 0, i32 0
  %11 = load double, ptr %10, align 8, !tbaa !45
  %12 = load ptr, ptr %4, align 8, !tbaa !9
  %13 = getelementptr inbounds nuw %struct._generic_SUNAdaptController, ptr %12, i32 0, i32 0
  %14 = load ptr, ptr %13, align 8, !tbaa !23
  %15 = getelementptr inbounds nuw %struct._ARKUserControlContent, ptr %14, i32 0, i32 1
  store double %11, ptr %15, align 8, !tbaa !46
  %16 = load double, ptr %5, align 8, !tbaa !30
  %17 = load ptr, ptr %4, align 8, !tbaa !9
  %18 = getelementptr inbounds nuw %struct._generic_SUNAdaptController, ptr %17, i32 0, i32 0
  %19 = load ptr, ptr %18, align 8, !tbaa !23
  %20 = getelementptr inbounds nuw %struct._ARKUserControlContent, ptr %19, i32 0, i32 0
  store double %16, ptr %20, align 8, !tbaa !45
  %21 = load ptr, ptr %4, align 8, !tbaa !9
  %22 = getelementptr inbounds nuw %struct._generic_SUNAdaptController, ptr %21, i32 0, i32 0
  %23 = load ptr, ptr %22, align 8, !tbaa !23
  %24 = getelementptr inbounds nuw %struct._ARKUserControlContent, ptr %23, i32 0, i32 2
  %25 = load double, ptr %24, align 8, !tbaa !47
  %26 = load ptr, ptr %4, align 8, !tbaa !9
  %27 = getelementptr inbounds nuw %struct._generic_SUNAdaptController, ptr %26, i32 0, i32 0
  %28 = load ptr, ptr %27, align 8, !tbaa !23
  %29 = getelementptr inbounds nuw %struct._ARKUserControlContent, ptr %28, i32 0, i32 3
  store double %25, ptr %29, align 8, !tbaa !48
  %30 = load double, ptr %6, align 8, !tbaa !30
  %31 = load ptr, ptr %4, align 8, !tbaa !9
  %32 = getelementptr inbounds nuw %struct._generic_SUNAdaptController, ptr %31, i32 0, i32 0
  %33 = load ptr, ptr %32, align 8, !tbaa !23
  %34 = getelementptr inbounds nuw %struct._ARKUserControlContent, ptr %33, i32 0, i32 2
  store double %30, ptr %34, align 8, !tbaa !47
  ret i32 0
}