; Function Attrs: mustprogress nofree norecurse nosync nounwind willreturn memory(readwrite, inaccessiblemem: none) uwtable
define noundef i32 @SUNAdaptController_UpdateH_ARKUserControl(ptr noundef readonly captures(none) %0, double noundef %1, double noundef %2) #5 {
  %4 = load ptr, ptr %0, align 8, !tbaa !17
  %5 = load double, ptr %4, align 8, !tbaa !37
  %6 = getelementptr inbounds nuw i8, ptr %4, i64 8
  store double %5, ptr %6, align 8, !tbaa !38
  store double %1, ptr %4, align 8, !tbaa !37
  %7 = getelementptr inbounds nuw i8, ptr %4, i64 16
  %8 = load double, ptr %7, align 8, !tbaa !24
  %9 = getelementptr inbounds nuw i8, ptr %4, i64 24
  store double %8, ptr %9, align 8, !tbaa !25
  store double %2, ptr %7, align 8, !tbaa !24
  ret i32 0
}